; Function Attrs: mustprogress uwtable
define hidden i32 @_ZN3euf13th_euf_solver14eq_internalizeEP4exprS2_(ptr nocapture noundef nonnull readonly align 8 dereferenceable(108) %this, ptr noundef %a, ptr noundef %b) local_unnamed_addr #3 align 2 personality ptr @__gxx_personality_v0 {
entry:
  %ref.tmp = alloca %class.obj_ref, align 8
  %ctx = getelementptr inbounds i8, ptr %this, i64 80
  %0 = load ptr, ptr %ctx, align 8
  call void @_ZN3euf6solver5mk_eqEP4exprS2_(ptr nonnull sret(%class.obj_ref) align 8 %ref.tmp, ptr noundef nonnull align 8 dereferenceable(9136) %0, ptr noundef %a, ptr noundef %b)
  %1 = load ptr, ptr %ref.tmp, align 8
  %2 = load ptr, ptr %ctx, align 8
  %call.i1 = invoke i32 @_ZN3euf6solver10mk_literalEP4expr(ptr noundef nonnull align 8 dereferenceable(9136) %2, ptr noundef %1)
          to label %invoke.cont2 unwind label %lpad

invoke.cont2:                                     ; preds = %entry
  %3 = load ptr, ptr %ref.tmp, align 8
  %tobool.not.i.i = icmp eq ptr %3, null
  br i1 %tobool.not.i.i, label %_ZN7obj_refI4expr11ast_managerED2Ev.exit, label %if.then.i.i.i

if.then.i.i.i:                                    ; preds = %invoke.cont2
  %m_manager.i.i = getelementptr inbounds i8, ptr %ref.tmp, i64 8
  %4 = load ptr, ptr %m_manager.i.i, align 8
  %m_ref_count.i.i.i.i = getelementptr inbounds i8, ptr %3, i64 8
  %5 = load i32, ptr %m_ref_count.i.i.i.i, align 4
  %dec.i.i.i.i = add i32 %5, -1
  store i32 %dec.i.i.i.i, ptr %m_ref_count.i.i.i.i, align 4
  %cmp.i.i.i = icmp eq i32 %dec.i.i.i.i, 0
  br i1 %cmp.i.i.i, label %if.then2.i.i.i, label %_ZN7obj_refI4expr11ast_managerED2Ev.exit

if.then2.i.i.i:                                   ; preds = %if.then.i.i.i
  invoke void @_ZN11ast_manager11delete_nodeEP3ast(ptr noundef nonnull align 8 dereferenceable(976) %4, ptr noundef nonnull %3)
          to label %_ZN7obj_refI4expr11ast_managerED2Ev.exit unwind label %terminate.lpad.i

terminate.lpad.i:                                 ; preds = %if.then2.i.i.i
  %6 = landingpad { ptr, i32 }
          catch ptr null
  %7 = extractvalue { ptr, i32 } %6, 0
  call void @__clang_call_terminate(ptr %7) #27
  unreachable

_ZN7obj_refI4expr11ast_managerED2Ev.exit:         ; preds = %invoke.cont2, %if.then.i.i.i, %if.then2.i.i.i
  ret i32 %call.i1

lpad:                                             ; preds = %entry
  %8 = landingpad { ptr, i32 }
          cleanup
  call void @_ZN7obj_refI4expr11ast_managerED2Ev(ptr noundef nonnull align 8 dereferenceable(16) %ref.tmp) #25
  resume { ptr, i32 } %8
}